target datalayout = "e-m:e-p270:32:32-p271:32:32-p272:64:64-i64:64-i128:128-f80:128-n8:16:32:64-S128"
target triple = "x86_64-unknown-linux-gnu"

%"class.std::basic_string_view" = type { i64, ptr }

@_ZN7testing19exceptions_internal9countdownE = dso_local global i32 -1, align 4
@_ZTIN7testing19exceptions_internal13TestExceptionE = linkonce_odr dso_local constant { ptr, ptr } { ptr getelementptr inbounds (ptr, ptr @_ZTVN10__cxxabiv117__class_type_infoE, i64 2), ptr @_ZTSN7testing19exceptions_internal13TestExceptionE }, comdat, align 8

; Function Attrs: mustprogress uwtable
define dso_local void @_ZN7testing19exceptions_internal10MaybeThrowESt17basic_string_viewIcSt11char_traitsIcEEb(i64 %msg.coerce0, ptr %msg.coerce1, i1 noundef zeroext %throw_bad_alloc) #4 personality ptr @__gxx_personality_v0 {
entry:
  %msg = alloca %"class.std::basic_string_view", align 8
  %throw_bad_alloc.addr = alloca i8, align 1
  %agg.tmp = alloca %"class.std::basic_string_view", align 8
  %exn.slot = alloca ptr, align 8
  %ehselector.slot = alloca i32, align 4
  %agg.tmp3 = alloca %"class.std::basic_string_view", align 8
  %0 = getelementptr inbounds { i64, ptr }, ptr %msg, i32 0, i32 0
  store i64 %msg.coerce0, ptr %0, align 8
  %1 = getelementptr inbounds { i64, ptr }, ptr %msg, i32 0, i32 1
  store ptr %msg.coerce1, ptr %1, align 8
  %frombool = zext i1 %throw_bad_alloc to i8
  store i8 %frombool, ptr %throw_bad_alloc.addr, align 1
  %2 = load i32, ptr @_ZN7testing19exceptions_internal9countdownE, align 4
  %dec = add nsw i32 %2, -1
  store i32 %dec, ptr @_ZN7testing19exceptions_internal9countdownE, align 4
  %cmp = icmp eq i32 %2, 0
  br i1 %cmp, label %if.then, label %if.end6

if.then:                                          ; preds = %entry
  %3 = load i8, ptr %throw_bad_alloc.addr, align 1
  %tobool = trunc i8 %3 to i1
  br i1 %tobool, label %if.then1, label %if.end

if.then1:                                         ; preds = %if.then
  %exception = call ptr @__cxa_allocate_exception(i64 48) #3
  call void @llvm.memcpy.p0.p0.i64(ptr align 8 %agg.tmp, ptr align 8 %msg, i64 16, i1 false)
  %4 = getelementptr inbounds { i64, ptr }, ptr %agg.tmp, i32 0, i32 0
  %5 = load i64, ptr %4, align 8
  %6 = getelementptr inbounds { i64, ptr }, ptr %agg.tmp, i32 0, i32 1
  %7 = load ptr, ptr %6, align 8
  invoke void @_ZN7testing19exceptions_internal21TestBadAllocExceptionC2ESt17basic_string_viewIcSt11char_traitsIcEE(ptr noundef nonnull align 8 dereferenceable(48) %exception, i64 %5, ptr %7)
          to label %invoke.cont unwind label %lpad

invoke.cont:                                      ; preds = %if.then1
  call void @__cxa_throw(ptr %exception, ptr @_ZTIN7testing19exceptions_internal21TestBadAllocExceptionE, ptr @_ZN7testing19exceptions_internal21TestBadAllocExceptionD2Ev) #12
  unreachable

lpad:                                             ; preds = %if.then1
  %8 = landingpad { ptr, i32 }
          cleanup
  %9 = extractvalue { ptr, i32 } %8, 0
  store ptr %9, ptr %exn.slot, align 8
  %10 = extractvalue { ptr, i32 } %8, 1
  store i32 %10, ptr %ehselector.slot, align 4
  call void @__cxa_free_exception(ptr %exception) #3
  br label %eh.resume

if.end:                                           ; preds = %if.then
  %exception2 = call ptr @__cxa_allocate_exception(i64 40) #3
  call void @llvm.memcpy.p0.p0.i64(ptr align 8 %agg.tmp3, ptr align 8 %msg, i64 16, i1 false)
  %11 = getelementptr inbounds { i64, ptr }, ptr %agg.tmp3, i32 0, i32 0
  %12 = load i64, ptr %11, align 8
  %13 = getelementptr inbounds { i64, ptr }, ptr %agg.tmp3, i32 0, i32 1
  %14 = load ptr, ptr %13, align 8
  invoke void @_ZN7testing19exceptions_internal13TestExceptionC2ESt17basic_string_viewIcSt11char_traitsIcEE(ptr noundef nonnull align 8 dereferenceable(40) %exception2, i64 %12, ptr %14)
          to label %invoke.cont5 unwind label %lpad4

invoke.cont5:                                     ; preds = %if.end
  call void @__cxa_throw(ptr %exception2, ptr @_ZTIN7testing19exceptions_internal13TestExceptionE, ptr @_ZN7testing19exceptions_internal13TestExceptionD2Ev) #12
  unreachable

lpad4:                                            ; preds = %if.end
  %15 = landingpad { ptr, i32 }
          cleanup
  %16 = extractvalue { ptr, i32 } %15, 0
  store ptr %16, ptr %exn.slot, align 8
  %17 = extractvalue { ptr, i32 } %15, 1
  store i32 %17, ptr %ehselector.slot, align 4
  call void @__cxa_free_exception(ptr %exception2) #3
  br label %eh.resume

if.end6:                                          ; preds = %entry
  ret void

eh.resume:                                        ; preds = %lpad4, %lpad
  %exn = load ptr, ptr %exn.slot, align 8
  %sel = load i32, ptr %ehselector.slot, align 4
  %lpad.val = insertvalue { ptr, i32 } poison, ptr %exn, 0
  %lpad.val7 = insertvalue { ptr, i32 } %lpad.val, i32 %sel, 1
  resume { ptr, i32 } %lpad.val7
}