; Function Attrs: mustprogress uwtable
define dso_local void @_ZN7testing19exceptions_internal10MaybeThrowESt17basic_string_viewIcSt11char_traitsIcEEb(i64 %msg.coerce0, ptr %msg.coerce1, i1 noundef zeroext %throw_bad_alloc) local_unnamed_addr #4 personality ptr @__gxx_personality_v0 {
entry:
  %0 = load i32, ptr @_ZN7testing19exceptions_internal9countdownE, align 4
  %dec = add nsw i32 %0, -1
  store i32 %dec, ptr @_ZN7testing19exceptions_internal9countdownE, align 4
  %cmp = icmp eq i32 %0, 0
  br i1 %cmp, label %if.then, label %if.end6

if.then:                                          ; preds = %entry
  br i1 %throw_bad_alloc, label %if.then1, label %if.end

if.then1:                                         ; preds = %if.then
  %exception = tail call ptr @__cxa_allocate_exception(i64 48) #13
  invoke void @_ZN7testing19exceptions_internal21TestBadAllocExceptionC2ESt17basic_string_viewIcSt11char_traitsIcEE(ptr noundef nonnull align 8 dereferenceable(48) %exception, i64 %msg.coerce0, ptr %msg.coerce1)
          to label %invoke.cont unwind label %lpad

invoke.cont:                                      ; preds = %if.then1
  tail call void @__cxa_throw(ptr nonnull %exception, ptr nonnull @_ZTIN7testing19exceptions_internal21TestBadAllocExceptionE, ptr nonnull @_ZN7testing19exceptions_internal21TestBadAllocExceptionD2Ev) #14
  unreachable

lpad:                                             ; preds = %if.then1
  %1 = landingpad { ptr, i32 }
          cleanup
  br label %eh.resume

if.end:                                           ; preds = %if.then
  %exception2 = tail call ptr @__cxa_allocate_exception(i64 40) #13
  invoke void @_ZN7testing19exceptions_internal13TestExceptionC2ESt17basic_string_viewIcSt11char_traitsIcEE(ptr noundef nonnull align 8 dereferenceable(40) %exception2, i64 %msg.coerce0, ptr %msg.coerce1)
          to label %invoke.cont5 unwind label %lpad4

invoke.cont5:                                     ; preds = %if.end
  tail call void @__cxa_throw(ptr nonnull %exception2, ptr nonnull @_ZTIN7testing19exceptions_internal13TestExceptionE, ptr nonnull @_ZN7testing19exceptions_internal13TestExceptionD2Ev) #14
  unreachable

lpad4:                                            ; preds = %if.end
  %2 = landingpad { ptr, i32 }
          cleanup
  br label %eh.resume

if.end6:                                          ; preds = %entry
  ret void

eh.resume:                                        ; preds = %lpad4, %lpad
  %exception2.sink = phi ptr [ %exception2, %lpad4 ], [ %exception, %lpad ]
  %.pn = phi { ptr, i32 } [ %2, %lpad4 ], [ %1, %lpad ]
  tail call void @__cxa_free_exception(ptr %exception2.sink) #13
  resume { ptr, i32 } %.pn
}